(lp0
(dp1
S'setup'
p2
(dp3
S'd32'
p4
F0.00015
sS'U'
p5
F2.24
sS'theta'
p6
F3600.0
ssS'best_fit'
p7
cnumpy.core.multiarray
_reconstruct
p8
(cnumpy
ndarray
p9
(I0
tp10
S'b'
p11
tp12
Rp13
(I1
(I4
tp14
cnumpy
dtype
p15
(S'f8'
p16
I0
I1
tp17
Rp18
(I3
S'<'
p19
NNNI-1
I-1
I0
tp20
bI00
S'\xc2$$\x1b\xb3\xf9\xef?\x12\x88\x18H\xe4\xfc\xef?D\xfb\x17\xd8\xe7\xdbU\xc0\xd5Y"\xc9\x10c!@'
p21
tp22
bsa.