(lp0
(dp1
S'setup'
p2
(dp3
S'd32'
p4
F0.00032
sS'phi'
p5
F0.117
sS'U'
p6
F2.72
sS'theta'
p7
F600.0
ssS'best_fit'
p8
cnumpy.core.multiarray
_reconstruct
p9
(cnumpy
ndarray
p10
(I0
tp11
S'b'
p12
tp13
Rp14
(I1
(I4
tp15
cnumpy
dtype
p16
(S'f8'
p17
I0
I1
tp18
Rp19
(I3
S'<'
p20
NNNI-1
I-1
I0
tp21
bI00
S'zc\xebi\x98"\xe1?\x00\xd0Z\xd4)\x84\xbd?;u\x93\x06\x94<\x0e@\xef\x00\x17Q\x98\xc5\xe7?'
p22
tp23
bsa.